target datalayout = "e-m:e-p270:32:32-p271:32:32-p272:64:64-i64:64-i128:128-f80:128-n8:16:32:64-S128"
target triple = "x86_64-pc-linux-gnu"

@lib_ctx = internal global ptr null, align 8
@null_prov = internal global ptr null, align 8
@lib_prov = internal global ptr null, align 8
@.str.16 = private unnamed_addr constant [19 x i8] c"ml_dsa_keygen_test\00", align 1
@.str.17 = private unnamed_addr constant [19 x i8] c"ml_dsa_siggen_test\00", align 1
@.str.18 = private unnamed_addr constant [19 x i8] c"ml_dsa_sigver_test\00", align 1
@.str.19 = private unnamed_addr constant [20 x i8] c"ml_dsa_key_dup_test\00", align 1
@.str.20 = private unnamed_addr constant [25 x i8] c"ml_dsa_key_internal_test\00", align 1
@.str.21 = private unnamed_addr constant [24 x i8] c"ml_dsa_keygen_drbg_test\00", align 1
@.str.22 = private unnamed_addr constant [27 x i8] c"ml_dsa_44_sign_verify_test\00", align 1
@.str.23 = private unnamed_addr constant [27 x i8] c"ml_dsa_65_sign_verify_test\00", align 1
@.str.24 = private unnamed_addr constant [27 x i8] c"ml_dsa_87_sign_verify_test\00", align 1
@.str.25 = private unnamed_addr constant [30 x i8] c"from_data_invalid_public_test\00", align 1
@.str.26 = private unnamed_addr constant [25 x i8] c"from_data_bad_input_test\00", align 1
@.str.27 = private unnamed_addr constant [31 x i8] c"ml_dsa_digest_sign_verify_test\00", align 1
@.str.28 = private unnamed_addr constant [28 x i8] c"ml_dsa_priv_pub_bad_t0_test\00", align 1

; Function Attrs: nounwind uwtable
define dso_local i32 @setup_tests() #0 {
  %1 = alloca i32, align 4
  %2 = alloca i32, align 4
  %3 = alloca ptr, align 8
  %4 = alloca i32, align 4
  call void @llvm.lifetime.start.p0(i64 4, ptr %2) #4
  call void @llvm.lifetime.start.p0(i64 8, ptr %3) #4
  store ptr null, ptr %3, align 8, !tbaa !4
  br label %5

5:                                                ; preds = %15, %0
  %6 = call i32 @opt_next()
  store i32 %6, ptr %2, align 4, !tbaa !9
  %7 = icmp ne i32 %6, 0
  br i1 %7, label %8, label %16

8:                                                ; preds = %5
  %9 = load i32, ptr %2, align 4, !tbaa !9
  switch i32 %9, label %13 [
    i32 1, label %10
    i32 500, label %12
    i32 501, label %12
    i32 502, label %12
    i32 503, label %12
    i32 504, label %12
    i32 505, label %12
    i32 -1, label %14
  ]

10:                                               ; preds = %8
  %11 = call ptr @opt_arg()
  store ptr %11, ptr %3, align 8, !tbaa !4
  br label %15

12:                                               ; preds = %8, %8, %8, %8, %8, %8
  br label %15

13:                                               ; preds = %8
  br label %14

14:                                               ; preds = %8, %13
  store i32 0, ptr %1, align 4
  store i32 1, ptr %4, align 4
  br label %22

15:                                               ; preds = %12, %10
  br label %5, !llvm.loop !11

16:                                               ; preds = %5
  %17 = load ptr, ptr %3, align 8, !tbaa !4
  %18 = call i32 @test_get_libctx(ptr noundef @lib_ctx, ptr noundef @null_prov, ptr noundef %17, ptr noundef @lib_prov, ptr noundef null)
  %19 = icmp ne i32 %18, 0
  br i1 %19, label %21, label %20

20:                                               ; preds = %16
  store i32 0, ptr %1, align 4
  store i32 1, ptr %4, align 4
  br label %22

21:                                               ; preds = %16
  call void @add_all_tests(ptr noundef @.str.16, ptr noundef @ml_dsa_keygen_test, i32 noundef 2, i32 noundef 1)
  call void @add_all_tests(ptr noundef @.str.17, ptr noundef @ml_dsa_siggen_test, i32 noundef 2, i32 noundef 1)
  call void @add_all_tests(ptr noundef @.str.18, ptr noundef @ml_dsa_sigver_test, i32 noundef 1, i32 noundef 1)
  call void @add_test(ptr noundef @.str.19, ptr noundef @ml_dsa_key_dup_test)
  call void @add_test(ptr noundef @.str.20, ptr noundef @ml_dsa_key_internal_test)
  call void @add_test(ptr noundef @.str.21, ptr noundef @ml_dsa_keygen_drbg_test)
  call void @add_all_tests(ptr noundef @.str.22, ptr noundef @ml_dsa_44_sign_verify_test, i32 noundef 12, i32 noundef 1)
  call void @add_all_tests(ptr noundef @.str.23, ptr noundef @ml_dsa_65_sign_verify_test, i32 noundef 12, i32 noundef 1)
  call void @add_all_tests(ptr noundef @.str.24, ptr noundef @ml_dsa_87_sign_verify_test, i32 noundef 12, i32 noundef 1)
  call void @add_test(ptr noundef @.str.25, ptr noundef @from_data_invalid_public_test)
  call void @add_test(ptr noundef @.str.26, ptr noundef @from_data_bad_input_test)
  call void @add_test(ptr noundef @.str.27, ptr noundef @ml_dsa_digest_sign_verify_test)
  call void @add_test(ptr noundef @.str.28, ptr noundef @ml_dsa_priv_pub_bad_t0_test)
  store i32 1, ptr %1, align 4
  store i32 1, ptr %4, align 4
  br label %22

22:                                               ; preds = %21, %20, %14
  call void @llvm.lifetime.end.p0(i64 8, ptr %3) #4
  call void @llvm.lifetime.end.p0(i64 4, ptr %2) #4
  %23 = load i32, ptr %1, align 4
  ret i32 %23
}