; Function Attrs: nounwind uwtable
define dso_local range(i32 0, 2) i32 @setup_tests() local_unnamed_addr #1 {
  br label %.outer

.outer:                                           ; preds = %3, %0
  %.0.ph = phi ptr [ %4, %3 ], [ null, %0 ]
  br label %1

1:                                                ; preds = %.backedge, %.outer
  %2 = tail call i32 @opt_next() #5
  switch i32 %2, label %.loopexit [
    i32 0, label %5
    i32 1, label %3
    i32 500, label %.backedge
    i32 501, label %.backedge
    i32 502, label %.backedge
    i32 503, label %.backedge
    i32 504, label %.backedge
    i32 505, label %.backedge
  ]

.backedge:                                        ; preds = %1, %1, %1, %1, %1, %1
  br label %1, !llvm.loop !4

3:                                                ; preds = %1
  %4 = tail call ptr @opt_arg() #5
  br label %.outer, !llvm.loop !4

5:                                                ; preds = %1
  %6 = tail call i32 @test_get_libctx(ptr noundef nonnull @lib_ctx, ptr noundef nonnull @null_prov, ptr noundef %.0.ph, ptr noundef nonnull @lib_prov, ptr noundef null) #5
  %.not4 = icmp eq i32 %6, 0
  br i1 %.not4, label %.loopexit, label %7

7:                                                ; preds = %5
  tail call void @add_all_tests(ptr noundef nonnull @.str.16, ptr noundef nonnull @ml_dsa_keygen_test, i32 noundef 2, i32 noundef 1) #5
  tail call void @add_all_tests(ptr noundef nonnull @.str.17, ptr noundef nonnull @ml_dsa_siggen_test, i32 noundef 2, i32 noundef 1) #5
  tail call void @add_all_tests(ptr noundef nonnull @.str.18, ptr noundef nonnull @ml_dsa_sigver_test, i32 noundef 1, i32 noundef 1) #5
  tail call void @add_test(ptr noundef nonnull @.str.19, ptr noundef nonnull @ml_dsa_key_dup_test) #5
  tail call void @add_test(ptr noundef nonnull @.str.20, ptr noundef nonnull @ml_dsa_key_internal_test) #5
  tail call void @add_test(ptr noundef nonnull @.str.21, ptr noundef nonnull @ml_dsa_keygen_drbg_test) #5
  tail call void @add_all_tests(ptr noundef nonnull @.str.22, ptr noundef nonnull @ml_dsa_44_sign_verify_test, i32 noundef 12, i32 noundef 1) #5
  tail call void @add_all_tests(ptr noundef nonnull @.str.23, ptr noundef nonnull @ml_dsa_65_sign_verify_test, i32 noundef 12, i32 noundef 1) #5
  tail call void @add_all_tests(ptr noundef nonnull @.str.24, ptr noundef nonnull @ml_dsa_87_sign_verify_test, i32 noundef 12, i32 noundef 1) #5
  tail call void @add_test(ptr noundef nonnull @.str.25, ptr noundef nonnull @from_data_invalid_public_test) #5
  tail call void @add_test(ptr noundef nonnull @.str.26, ptr noundef nonnull @from_data_bad_input_test) #5
  tail call void @add_test(ptr noundef nonnull @.str.27, ptr noundef nonnull @ml_dsa_digest_sign_verify_test) #5
  tail call void @add_test(ptr noundef nonnull @.str.28, ptr noundef nonnull @ml_dsa_priv_pub_bad_t0_test) #5
  br label %.loopexit

.loopexit:                                        ; preds = %1, %5, %7
  %.02 = phi i32 [ 1, %7 ], [ 0, %5 ], [ 0, %1 ]
  ret i32 %.02
}